target datalayout = "e-m:e-p270:32:32-p271:32:32-p272:64:64-i64:64-i128:128-f80:128-n8:16:32:64-S128"
target triple = "x86_64-pc-linux-gnu"

%"class.clang::MultiplexASTDeserializationListener" = type { %"class.clang::ASTDeserializationListener", %"class.std::vector" }
%"class.clang::ASTDeserializationListener" = type { ptr }
%"class.std::vector" = type { %"struct.std::_Vector_base" }
%"struct.std::_Vector_base" = type { %"struct.std::_Vector_base<clang::ASTDeserializationListener *, std::allocator<clang::ASTDeserializationListener *>>::_Vector_impl" }
%"struct.std::_Vector_base<clang::ASTDeserializationListener *, std::allocator<clang::ASTDeserializationListener *>>::_Vector_impl" = type { %"struct.std::_Vector_base<clang::ASTDeserializationListener *, std::allocator<clang::ASTDeserializationListener *>>::_Vector_impl_data" }
%"struct.std::_Vector_base<clang::ASTDeserializationListener *, std::allocator<clang::ASTDeserializationListener *>>::_Vector_impl_data" = type { ptr, ptr, ptr }
%"class.clang::GlobalDeclID" = type { %"class.clang::DeclIDBase" }
%"class.clang::DeclIDBase" = type { i64 }

; Function Attrs: mustprogress nounwind uwtable
define linkonce_odr hidden noundef nonnull align 8 dereferenceable(8) ptr @_ZNSt6vectorIPN5clang26ASTDeserializationListenerESaIS2_EEixEm(ptr noundef nonnull align 8 dereferenceable(24) %0, i64 noundef %1) #0 comdat align 2 {
  %3 = alloca ptr, align 8
  %4 = alloca i64, align 8
  store ptr %0, ptr %3, align 8
  store i64 %1, ptr %4, align 8
  %5 = load ptr, ptr %3, align 8
  %6 = getelementptr inbounds nuw %"struct.std::_Vector_base", ptr %5, i32 0, i32 0
  %7 = getelementptr inbounds nuw %"struct.std::_Vector_base<clang::ASTDeserializationListener *, std::allocator<clang::ASTDeserializationListener *>>::_Vector_impl_data", ptr %6, i32 0, i32 0
  %8 = load ptr, ptr %7, align 8
  %9 = load i64, ptr %4, align 8
  %10 = getelementptr inbounds ptr, ptr %8, i64 %9
  ret ptr %10
}

; Function Attrs: mustprogress nounwind uwtable
define linkonce_odr hidden noundef i64 @_ZNKSt6vectorIPN5clang26ASTDeserializationListenerESaIS2_EE4sizeEv(ptr noundef nonnull align 8 dereferenceable(24) %0) #0 comdat align 2 {
  %2 = alloca ptr, align 8
  store ptr %0, ptr %2, align 8
  %3 = load ptr, ptr %2, align 8
  %4 = getelementptr inbounds nuw %"struct.std::_Vector_base", ptr %3, i32 0, i32 0
  %5 = getelementptr inbounds nuw %"struct.std::_Vector_base<clang::ASTDeserializationListener *, std::allocator<clang::ASTDeserializationListener *>>::_Vector_impl_data", ptr %4, i32 0, i32 1
  %6 = load ptr, ptr %5, align 8
  %7 = getelementptr inbounds nuw %"struct.std::_Vector_base", ptr %3, i32 0, i32 0
  %8 = getelementptr inbounds nuw %"struct.std::_Vector_base<clang::ASTDeserializationListener *, std::allocator<clang::ASTDeserializationListener *>>::_Vector_impl_data", ptr %7, i32 0, i32 0
  %9 = load ptr, ptr %8, align 8
  %10 = ptrtoint ptr %6 to i64
  %11 = ptrtoint ptr %9 to i64
  %12 = sub i64 %10, %11
  %13 = sdiv exact i64 %12, 8
  ret i64 %13
}

; Function Attrs: mustprogress nounwind uwtable
define dso_local void @_ZN5clang35MultiplexASTDeserializationListener8DeclReadENS_12GlobalDeclIDEPKNS_4DeclE(ptr noundef nonnull align 8 dereferenceable(32) %0, i64 %1, ptr noundef %2) unnamed_addr #0 align 2 {
  %4 = alloca %"class.clang::GlobalDeclID", align 8
  %5 = alloca ptr, align 8
  %6 = alloca ptr, align 8
  %7 = alloca i64, align 8
  %8 = alloca i64, align 8
  %9 = alloca %"class.clang::GlobalDeclID", align 8
  %10 = getelementptr inbounds nuw %"class.clang::GlobalDeclID", ptr %4, i32 0, i32 0
  %11 = getelementptr inbounds nuw %"class.clang::DeclIDBase", ptr %10, i32 0, i32 0
  store i64 %1, ptr %11, align 8
  store ptr %0, ptr %5, align 8
  store ptr %2, ptr %6, align 8
  %12 = load ptr, ptr %5, align 8
  store i64 0, ptr %7, align 8
  %13 = getelementptr inbounds nuw %"class.clang::MultiplexASTDeserializationListener", ptr %12, i32 0, i32 1
  %14 = call noundef i64 @_ZNKSt6vectorIPN5clang26ASTDeserializationListenerESaIS2_EE4sizeEv(ptr noundef nonnull align 8 dereferenceable(24) %13) #8
  store i64 %14, ptr %8, align 8
  br label %15

15:                                               ; preds = %31, %3
  %16 = load i64, ptr %7, align 8
  %17 = load i64, ptr %8, align 8
  %18 = icmp ne i64 %16, %17
  br i1 %18, label %19, label %34

19:                                               ; preds = %15
  %20 = getelementptr inbounds nuw %"class.clang::MultiplexASTDeserializationListener", ptr %12, i32 0, i32 1
  %21 = load i64, ptr %7, align 8
  %22 = call noundef nonnull align 8 dereferenceable(8) ptr @_ZNSt6vectorIPN5clang26ASTDeserializationListenerESaIS2_EEixEm(ptr noundef nonnull align 8 dereferenceable(24) %20, i64 noundef %21) #8
  %23 = load ptr, ptr %22, align 8
  call void @llvm.memcpy.p0.p0.i64(ptr align 8 %9, ptr align 8 %4, i64 8, i1 false)
  %24 = load ptr, ptr %6, align 8
  %25 = getelementptr inbounds nuw %"class.clang::GlobalDeclID", ptr %9, i32 0, i32 0
  %26 = getelementptr inbounds nuw %"class.clang::DeclIDBase", ptr %25, i32 0, i32 0
  %27 = load i64, ptr %26, align 8
  %28 = load ptr, ptr %23, align 8
  %29 = getelementptr inbounds ptr, ptr %28, i64 6
  %30 = load ptr, ptr %29, align 8
  call void %30(ptr noundef nonnull align 8 dereferenceable(8) %23, i64 %27, ptr noundef %24)
  br label %31

31:                                               ; preds = %19
  %32 = load i64, ptr %7, align 8
  %33 = add i64 %32, 1
  store i64 %33, ptr %7, align 8
  br label %15, !llvm.loop !8

34:                                               ; preds = %15
  ret void
}